target datalayout = "e-m:e-p270:32:32-p271:32:32-p272:64:64-i64:64-i128:128-f80:128-n8:16:32:64-S128"
target triple = "x86_64-pc-linux-gnu"

%struct.ossl_ex_data_global_st = type { ptr, [18 x %struct.ex_callbacks_st] }
%struct.ex_callbacks_st = type { ptr }
%struct.ex_callback_st = type { i64, ptr, i32, ptr, ptr, ptr }

@.str = private unnamed_addr constant [28 x i8] c"../openssl/crypto/ex_data.c\00", align 1
@__func__.ossl_crypto_get_ex_new_index_ex = private unnamed_addr constant [32 x i8] c"ossl_crypto_get_ex_new_index_ex\00", align 1
@__func__.get_and_lock = private unnamed_addr constant [13 x i8] c"get_and_lock\00", align 1

; Function Attrs: inlinehint nounwind uwtable
define internal ptr @sk_EX_CALLBACK_set(ptr noundef %0, i32 noundef %1, ptr noundef %2) #3 {
  %4 = alloca ptr, align 8
  %5 = alloca i32, align 4
  %6 = alloca ptr, align 8
  store ptr %0, ptr %4, align 8, !tbaa !21
  store i32 %1, ptr %5, align 4, !tbaa !12
  store ptr %2, ptr %6, align 8, !tbaa !23
  %7 = load ptr, ptr %4, align 8, !tbaa !21
  %8 = load i32, ptr %5, align 4, !tbaa !12
  %9 = load ptr, ptr %6, align 8, !tbaa !23
  %10 = call ptr @OPENSSL_sk_set(ptr noundef %7, i32 noundef %8, ptr noundef %9)
  ret ptr %10
}

; Function Attrs: inlinehint nounwind uwtable
define internal i32 @sk_EX_CALLBACK_num(ptr noundef %0) #3 {
  %2 = alloca ptr, align 8
  store ptr %0, ptr %2, align 8, !tbaa !21
  %3 = load ptr, ptr %2, align 8, !tbaa !21
  %4 = call i32 @OPENSSL_sk_num(ptr noundef %3)
  ret i32 %4
}

; Function Attrs: inlinehint nounwind uwtable
define internal void @sk_EX_CALLBACK_free(ptr noundef %0) #3 {
  %2 = alloca ptr, align 8
  store ptr %0, ptr %2, align 8, !tbaa !21
  %3 = load ptr, ptr %2, align 8, !tbaa !21
  call void @OPENSSL_sk_free(ptr noundef %3)
  ret void
}

; Function Attrs: inlinehint nounwind uwtable
define internal i32 @sk_EX_CALLBACK_push(ptr noundef %0, ptr noundef %1) #3 {
  %3 = alloca ptr, align 8
  %4 = alloca ptr, align 8
  store ptr %0, ptr %3, align 8, !tbaa !21
  store ptr %1, ptr %4, align 8, !tbaa !23
  %5 = load ptr, ptr %3, align 8, !tbaa !21
  %6 = load ptr, ptr %4, align 8, !tbaa !23
  %7 = call i32 @OPENSSL_sk_push(ptr noundef %5, ptr noundef %6)
  ret i32 %7
}

; Function Attrs: inlinehint nounwind uwtable
define internal ptr @sk_EX_CALLBACK_new_null() #3 {
  %1 = call ptr @OPENSSL_sk_new_null()
  ret ptr %1
}

; Function Attrs: nounwind uwtable
define internal ptr @get_and_lock(ptr noundef %0, i32 noundef %1, i32 noundef %2) #0 {
  %4 = alloca ptr, align 8
  %5 = alloca ptr, align 8
  %6 = alloca i32, align 4
  %7 = alloca i32, align 4
  %8 = alloca ptr, align 8
  %9 = alloca i32, align 4
  store ptr %0, ptr %5, align 8, !tbaa !8
  store i32 %1, ptr %6, align 4, !tbaa !12
  store i32 %2, ptr %7, align 4, !tbaa !12
  call void @llvm.lifetime.start.p0(i64 8, ptr %8) #4
  %10 = load i32, ptr %6, align 4, !tbaa !12
  %11 = icmp slt i32 %10, 0
  br i1 %11, label %15, label %12

12:                                               ; preds = %3
  %13 = load i32, ptr %6, align 4, !tbaa !12
  %14 = icmp sge i32 %13, 18
  br i1 %14, label %15, label %16

15:                                               ; preds = %12, %3
  call void @ERR_new()
  call void @ERR_set_debug(ptr noundef @.str, i32 noundef 37, ptr noundef @__func__.get_and_lock)
  call void (i32, i32, ptr, ...) @ERR_set_error(i32 noundef 15, i32 noundef 524550, ptr noundef null)
  store ptr null, ptr %4, align 8
  store i32 1, ptr %9, align 4
  br label %48

16:                                               ; preds = %12
  %17 = load ptr, ptr %5, align 8, !tbaa !8
  %18 = getelementptr inbounds nuw %struct.ossl_ex_data_global_st, ptr %17, i32 0, i32 0
  %19 = load ptr, ptr %18, align 8, !tbaa !10
  %20 = icmp eq ptr %19, null
  br i1 %20, label %21, label %22

21:                                               ; preds = %16
  store ptr null, ptr %4, align 8
  store i32 1, ptr %9, align 4
  br label %48

22:                                               ; preds = %16
  %23 = load i32, ptr %7, align 4, !tbaa !12
  %24 = icmp ne i32 %23, 0
  br i1 %24, label %25, label %33

25:                                               ; preds = %22
  %26 = load ptr, ptr %5, align 8, !tbaa !8
  %27 = getelementptr inbounds nuw %struct.ossl_ex_data_global_st, ptr %26, i32 0, i32 0
  %28 = load ptr, ptr %27, align 8, !tbaa !10
  %29 = call i32 @CRYPTO_THREAD_read_lock(ptr noundef %28)
  %30 = icmp ne i32 %29, 0
  br i1 %30, label %32, label %31

31:                                               ; preds = %25
  store ptr null, ptr %4, align 8
  store i32 1, ptr %9, align 4
  br label %48

32:                                               ; preds = %25
  br label %41

33:                                               ; preds = %22
  %34 = load ptr, ptr %5, align 8, !tbaa !8
  %35 = getelementptr inbounds nuw %struct.ossl_ex_data_global_st, ptr %34, i32 0, i32 0
  %36 = load ptr, ptr %35, align 8, !tbaa !10
  %37 = call i32 @CRYPTO_THREAD_write_lock(ptr noundef %36)
  %38 = icmp ne i32 %37, 0
  br i1 %38, label %40, label %39

39:                                               ; preds = %33
  store ptr null, ptr %4, align 8
  store i32 1, ptr %9, align 4
  br label %48

40:                                               ; preds = %33
  br label %41

41:                                               ; preds = %40, %32
  %42 = load ptr, ptr %5, align 8, !tbaa !8
  %43 = getelementptr inbounds nuw %struct.ossl_ex_data_global_st, ptr %42, i32 0, i32 1
  %44 = load i32, ptr %6, align 4, !tbaa !12
  %45 = sext i32 %44 to i64
  %46 = getelementptr inbounds [18 x %struct.ex_callbacks_st], ptr %43, i64 0, i64 %45
  store ptr %46, ptr %8, align 8, !tbaa !14
  %47 = load ptr, ptr %8, align 8, !tbaa !14
  store ptr %47, ptr %4, align 8
  store i32 1, ptr %9, align 4
  br label %48

48:                                               ; preds = %41, %39, %31, %21, %15
  call void @llvm.lifetime.end.p0(i64 8, ptr %8) #4
  %49 = load ptr, ptr %4, align 8
  ret ptr %49
}

; Function Attrs: nounwind uwtable
define i32 @ossl_crypto_get_ex_new_index_ex(ptr noundef %0, i32 noundef %1, i64 noundef %2, ptr noundef %3, ptr noundef %4, ptr noundef %5, ptr noundef %6, i32 noundef %7) #0 {
  %9 = alloca i32, align 4
  %10 = alloca ptr, align 8
  %11 = alloca i32, align 4
  %12 = alloca i64, align 8
  %13 = alloca ptr, align 8
  %14 = alloca ptr, align 8
  %15 = alloca ptr, align 8
  %16 = alloca ptr, align 8
  %17 = alloca i32, align 4
  %18 = alloca i32, align 4
  %19 = alloca ptr, align 8
  %20 = alloca ptr, align 8
  %21 = alloca ptr, align 8
  %22 = alloca i32, align 4
  store ptr %0, ptr %10, align 8, !tbaa !3
  store i32 %1, ptr %11, align 4, !tbaa !12
  store i64 %2, ptr %12, align 8, !tbaa !32
  store ptr %3, ptr %13, align 8, !tbaa !22
  store ptr %4, ptr %14, align 8, !tbaa !22
  store ptr %5, ptr %15, align 8, !tbaa !22
  store ptr %6, ptr %16, align 8, !tbaa !22
  store i32 %7, ptr %17, align 4, !tbaa !12
  call void @llvm.lifetime.start.p0(i64 4, ptr %18) #4
  store i32 -1, ptr %18, align 4, !tbaa !12
  call void @llvm.lifetime.start.p0(i64 8, ptr %19) #4
  call void @llvm.lifetime.start.p0(i64 8, ptr %20) #4
  call void @llvm.lifetime.start.p0(i64 8, ptr %21) #4
  %23 = load ptr, ptr %10, align 8, !tbaa !3
  %24 = call ptr @ossl_lib_ctx_get_ex_data_global(ptr noundef %23)
  store ptr %24, ptr %21, align 8, !tbaa !8
  %25 = load ptr, ptr %21, align 8, !tbaa !8
  %26 = icmp eq ptr %25, null
  br i1 %26, label %27, label %28

27:                                               ; preds = %8
  store i32 -1, ptr %9, align 4
  store i32 1, ptr %22, align 4
  br label %110

28:                                               ; preds = %8
  %29 = load ptr, ptr %21, align 8, !tbaa !8
  %30 = load i32, ptr %11, align 4, !tbaa !12
  %31 = call ptr @get_and_lock(ptr noundef %29, i32 noundef %30, i32 noundef 0)
  store ptr %31, ptr %20, align 8, !tbaa !14
  %32 = load ptr, ptr %20, align 8, !tbaa !14
  %33 = icmp eq ptr %32, null
  br i1 %33, label %34, label %35

34:                                               ; preds = %28
  store i32 -1, ptr %9, align 4
  store i32 1, ptr %22, align 4
  br label %110

35:                                               ; preds = %28
  %36 = load ptr, ptr %20, align 8, !tbaa !14
  %37 = getelementptr inbounds nuw %struct.ex_callbacks_st, ptr %36, i32 0, i32 0
  %38 = load ptr, ptr %37, align 8, !tbaa !16
  %39 = icmp eq ptr %38, null
  br i1 %39, label %40, label %61

40:                                               ; preds = %35
  %41 = call ptr @sk_EX_CALLBACK_new_null()
  %42 = load ptr, ptr %20, align 8, !tbaa !14
  %43 = getelementptr inbounds nuw %struct.ex_callbacks_st, ptr %42, i32 0, i32 0
  store ptr %41, ptr %43, align 8, !tbaa !16
  %44 = load ptr, ptr %20, align 8, !tbaa !14
  %45 = getelementptr inbounds nuw %struct.ex_callbacks_st, ptr %44, i32 0, i32 0
  %46 = load ptr, ptr %45, align 8, !tbaa !16
  %47 = icmp eq ptr %46, null
  br i1 %47, label %54, label %48

48:                                               ; preds = %40
  %49 = load ptr, ptr %20, align 8, !tbaa !14
  %50 = getelementptr inbounds nuw %struct.ex_callbacks_st, ptr %49, i32 0, i32 0
  %51 = load ptr, ptr %50, align 8, !tbaa !16
  %52 = call i32 @sk_EX_CALLBACK_push(ptr noundef %51, ptr noundef null)
  %53 = icmp ne i32 %52, 0
  br i1 %53, label %60, label %54

54:                                               ; preds = %48, %40
  %55 = load ptr, ptr %20, align 8, !tbaa !14
  %56 = getelementptr inbounds nuw %struct.ex_callbacks_st, ptr %55, i32 0, i32 0
  %57 = load ptr, ptr %56, align 8, !tbaa !16
  call void @sk_EX_CALLBACK_free(ptr noundef %57)
  %58 = load ptr, ptr %20, align 8, !tbaa !14
  %59 = getelementptr inbounds nuw %struct.ex_callbacks_st, ptr %58, i32 0, i32 0
  store ptr null, ptr %59, align 8, !tbaa !16
  call void @ERR_new()
  call void @ERR_set_debug(ptr noundef @.str, i32 noundef 176, ptr noundef @__func__.ossl_crypto_get_ex_new_index_ex)
  call void (i32, i32, ptr, ...) @ERR_set_error(i32 noundef 15, i32 noundef 524303, ptr noundef null)
  br label %104

60:                                               ; preds = %48
  br label %61

61:                                               ; preds = %60, %35
  %62 = call noalias ptr @CRYPTO_malloc(i64 noundef 48, ptr noundef @.str, i32 noundef 181)
  store ptr %62, ptr %19, align 8, !tbaa !23
  %63 = load ptr, ptr %19, align 8, !tbaa !23
  %64 = icmp eq ptr %63, null
  br i1 %64, label %65, label %66

65:                                               ; preds = %61
  br label %104

66:                                               ; preds = %61
  %67 = load i64, ptr %12, align 8, !tbaa !32
  %68 = load ptr, ptr %19, align 8, !tbaa !23
  %69 = getelementptr inbounds nuw %struct.ex_callback_st, ptr %68, i32 0, i32 0
  store i64 %67, ptr %69, align 8, !tbaa !33
  %70 = load ptr, ptr %13, align 8, !tbaa !22
  %71 = load ptr, ptr %19, align 8, !tbaa !23
  %72 = getelementptr inbounds nuw %struct.ex_callback_st, ptr %71, i32 0, i32 1
  store ptr %70, ptr %72, align 8, !tbaa !34
  %73 = load ptr, ptr %14, align 8, !tbaa !22
  %74 = load ptr, ptr %19, align 8, !tbaa !23
  %75 = getelementptr inbounds nuw %struct.ex_callback_st, ptr %74, i32 0, i32 3
  store ptr %73, ptr %75, align 8, !tbaa !25
  %76 = load ptr, ptr %15, align 8, !tbaa !22
  %77 = load ptr, ptr %19, align 8, !tbaa !23
  %78 = getelementptr inbounds nuw %struct.ex_callback_st, ptr %77, i32 0, i32 5
  store ptr %76, ptr %78, align 8, !tbaa !28
  %79 = load ptr, ptr %16, align 8, !tbaa !22
  %80 = load ptr, ptr %19, align 8, !tbaa !23
  %81 = getelementptr inbounds nuw %struct.ex_callback_st, ptr %80, i32 0, i32 4
  store ptr %79, ptr %81, align 8, !tbaa !29
  %82 = load i32, ptr %17, align 4, !tbaa !12
  %83 = load ptr, ptr %19, align 8, !tbaa !23
  %84 = getelementptr inbounds nuw %struct.ex_callback_st, ptr %83, i32 0, i32 2
  store i32 %82, ptr %84, align 8, !tbaa !35
  %85 = load ptr, ptr %20, align 8, !tbaa !14
  %86 = getelementptr inbounds nuw %struct.ex_callbacks_st, ptr %85, i32 0, i32 0
  %87 = load ptr, ptr %86, align 8, !tbaa !16
  %88 = call i32 @sk_EX_CALLBACK_push(ptr noundef %87, ptr noundef null)
  %89 = icmp ne i32 %88, 0
  br i1 %89, label %92, label %90

90:                                               ; preds = %66
  call void @ERR_new()
  call void @ERR_set_debug(ptr noundef @.str, i32 noundef 192, ptr noundef @__func__.ossl_crypto_get_ex_new_index_ex)
  call void (i32, i32, ptr, ...) @ERR_set_error(i32 noundef 15, i32 noundef 524303, ptr noundef null)
  %91 = load ptr, ptr %19, align 8, !tbaa !23
  call void @CRYPTO_free(ptr noundef %91, ptr noundef @.str, i32 noundef 193)
  br label %104

92:                                               ; preds = %66
  %93 = load ptr, ptr %20, align 8, !tbaa !14
  %94 = getelementptr inbounds nuw %struct.ex_callbacks_st, ptr %93, i32 0, i32 0
  %95 = load ptr, ptr %94, align 8, !tbaa !16
  %96 = call i32 @sk_EX_CALLBACK_num(ptr noundef %95)
  %97 = sub nsw i32 %96, 1
  store i32 %97, ptr %18, align 4, !tbaa !12
  %98 = load ptr, ptr %20, align 8, !tbaa !14
  %99 = getelementptr inbounds nuw %struct.ex_callbacks_st, ptr %98, i32 0, i32 0
  %100 = load ptr, ptr %99, align 8, !tbaa !16
  %101 = load i32, ptr %18, align 4, !tbaa !12
  %102 = load ptr, ptr %19, align 8, !tbaa !23
  %103 = call ptr @sk_EX_CALLBACK_set(ptr noundef %100, i32 noundef %101, ptr noundef %102)
  br label %104

104:                                              ; preds = %92, %90, %65, %54
  %105 = load ptr, ptr %21, align 8, !tbaa !8
  %106 = getelementptr inbounds nuw %struct.ossl_ex_data_global_st, ptr %105, i32 0, i32 0
  %107 = load ptr, ptr %106, align 8, !tbaa !10
  %108 = call i32 @CRYPTO_THREAD_unlock(ptr noundef %107)
  %109 = load i32, ptr %18, align 4, !tbaa !12
  store i32 %109, ptr %9, align 4
  store i32 1, ptr %22, align 4
  br label %110

110:                                              ; preds = %104, %34, %27
  call void @llvm.lifetime.end.p0(i64 8, ptr %21) #4
  call void @llvm.lifetime.end.p0(i64 8, ptr %20) #4
  call void @llvm.lifetime.end.p0(i64 8, ptr %19) #4
  call void @llvm.lifetime.end.p0(i64 4, ptr %18) #4
  %111 = load i32, ptr %9, align 4
  ret i32 %111
}