; Function Attrs: nounwind uwtable
define range(i32 -2147483648, 2147483647) i32 @ossl_crypto_get_ex_new_index_ex(ptr noundef %0, i32 noundef %1, i64 noundef %2, ptr noundef %3, ptr noundef %4, ptr noundef %5, ptr noundef %6, i32 noundef %7) local_unnamed_addr #0 {
  %9 = tail call ptr @ossl_lib_ctx_get_ex_data_global(ptr noundef %0) #9
  %10 = icmp eq ptr %9, null
  br i1 %10, label %get_and_lock.exit.thread, label %11

11:                                               ; preds = %8
  %or.cond.i = icmp ugt i32 %1, 17
  br i1 %or.cond.i, label %12, label %13

12:                                               ; preds = %11
  tail call void @ERR_new() #9
  tail call void @ERR_set_debug(ptr noundef nonnull @.str, i32 noundef 37, ptr noundef nonnull @__func__.get_and_lock) #9
  tail call void (i32, i32, ptr, ...) @ERR_set_error(i32 noundef 15, i32 noundef 524550, ptr noundef null) #9
  br label %get_and_lock.exit.thread

13:                                               ; preds = %11
  %14 = load ptr, ptr %9, align 8, !tbaa !3
  %15 = icmp eq ptr %14, null
  br i1 %15, label %get_and_lock.exit.thread, label %16

16:                                               ; preds = %13
  %17 = tail call i32 @CRYPTO_THREAD_write_lock(ptr noundef nonnull %14) #9
  %.not12.i = icmp eq i32 %17, 0
  br i1 %.not12.i, label %get_and_lock.exit.thread, label %18

18:                                               ; preds = %16
  %19 = getelementptr inbounds nuw i8, ptr %9, i64 8
  %20 = zext nneg i32 %1 to i64
  %21 = getelementptr inbounds nuw [18 x %struct.ex_callbacks_st], ptr %19, i64 0, i64 %20
  %22 = load ptr, ptr %21, align 8, !tbaa !8
  %23 = icmp eq ptr %22, null
  br i1 %23, label %24, label %31

24:                                               ; preds = %18
  %25 = tail call ptr @OPENSSL_sk_new_null() #9
  store ptr %25, ptr %21, align 8, !tbaa !8
  %26 = icmp eq ptr %25, null
  br i1 %26, label %29, label %27

27:                                               ; preds = %24
  %28 = tail call i32 @OPENSSL_sk_push(ptr noundef nonnull %25, ptr noundef null) #9
  %.not = icmp eq i32 %28, 0
  br i1 %.not, label %._crit_edge, label %31

._crit_edge:                                      ; preds = %27
  %.pre = load ptr, ptr %21, align 8, !tbaa !8
  br label %29

29:                                               ; preds = %._crit_edge, %24
  %30 = phi ptr [ %.pre, %._crit_edge ], [ null, %24 ]
  tail call void @OPENSSL_sk_free(ptr noundef %30) #9
  store ptr null, ptr %21, align 8, !tbaa !8
  tail call void @ERR_new() #9
  tail call void @ERR_set_debug(ptr noundef nonnull @.str, i32 noundef 176, ptr noundef nonnull @__func__.ossl_crypto_get_ex_new_index_ex) #9
  tail call void (i32, i32, ptr, ...) @ERR_set_error(i32 noundef 15, i32 noundef 524303, ptr noundef null) #9
  br label %49

31:                                               ; preds = %27, %18
  %32 = tail call noalias ptr @CRYPTO_malloc(i64 noundef 48, ptr noundef nonnull @.str, i32 noundef 181) #9
  %33 = icmp eq ptr %32, null
  br i1 %33, label %49, label %34

34:                                               ; preds = %31
  store i64 %2, ptr %32, align 8, !tbaa !19
  %35 = getelementptr inbounds nuw i8, ptr %32, i64 8
  store ptr %3, ptr %35, align 8, !tbaa !20
  %36 = getelementptr inbounds nuw i8, ptr %32, i64 24
  store ptr %4, ptr %36, align 8, !tbaa !13
  %37 = getelementptr inbounds nuw i8, ptr %32, i64 40
  store ptr %5, ptr %37, align 8, !tbaa !17
  %38 = getelementptr inbounds nuw i8, ptr %32, i64 32
  store ptr %6, ptr %38, align 8, !tbaa !18
  %39 = getelementptr inbounds nuw i8, ptr %32, i64 16
  store i32 %7, ptr %39, align 8, !tbaa !21
  %40 = load ptr, ptr %21, align 8, !tbaa !8
  %41 = tail call i32 @OPENSSL_sk_push(ptr noundef %40, ptr noundef null) #9
  %.not37 = icmp eq i32 %41, 0
  br i1 %.not37, label %42, label %43

42:                                               ; preds = %34
  tail call void @ERR_new() #9
  tail call void @ERR_set_debug(ptr noundef nonnull @.str, i32 noundef 192, ptr noundef nonnull @__func__.ossl_crypto_get_ex_new_index_ex) #9
  tail call void (i32, i32, ptr, ...) @ERR_set_error(i32 noundef 15, i32 noundef 524303, ptr noundef null) #9
  tail call void @CRYPTO_free(ptr noundef nonnull %32, ptr noundef nonnull @.str, i32 noundef 193) #9
  br label %49

43:                                               ; preds = %34
  %44 = load ptr, ptr %21, align 8, !tbaa !8
  %45 = tail call i32 @OPENSSL_sk_num(ptr noundef %44) #9
  %46 = add nsw i32 %45, -1
  %47 = load ptr, ptr %21, align 8, !tbaa !8
  %48 = tail call ptr @OPENSSL_sk_set(ptr noundef %47, i32 noundef range(i32 -2147483648, 2147483647) %46, ptr noundef nonnull %32) #9
  br label %49

49:                                               ; preds = %31, %43, %42, %29
  %.032 = phi i32 [ -1, %29 ], [ -1, %31 ], [ %46, %43 ], [ -1, %42 ]
  %50 = load ptr, ptr %9, align 8, !tbaa !3
  %51 = tail call i32 @CRYPTO_THREAD_unlock(ptr noundef %50) #9
  br label %get_and_lock.exit.thread

get_and_lock.exit.thread:                         ; preds = %16, %13, %12, %8, %49
  %.0 = phi i32 [ %.032, %49 ], [ -1, %8 ], [ -1, %12 ], [ -1, %13 ], [ -1, %16 ]
  ret i32 %.0
}